; Function Attrs: nofree norecurse nosync nounwind memory(read, argmem: readwrite, inaccessiblemem: none) uwtable
define i32 @Mig_ManXorNum(ptr noundef captures(none) initializes((80, 84)) %0) local_unnamed_addr #4 {
  %2 = getelementptr inbounds nuw i8, ptr %0, i64 80
  %3 = getelementptr i8, ptr %0, i64 28
  %.val.i = load i32, ptr %3, align 4
  store i32 0, ptr %2, align 8
  %4 = icmp sgt i32 %.val.i, 0
  br i1 %4, label %.lr.ph27.i, label %Mig_ManTypeNum.exit

.lr.ph27.i:                                       ; preds = %1
  %5 = getelementptr i8, ptr %0, i64 32
  %.val18.i = load ptr, ptr %5, align 8
  %6 = getelementptr inbounds nuw i8, ptr %0, i64 72
  %wide.trip.count.i = zext nneg i32 %.val.i to i64
  br label %7

7:                                                ; preds = %._crit_edge.i, %.lr.ph27.i
  %indvars.iv.i = phi i64 [ 0, %.lr.ph27.i ], [ %indvars.iv.next.i, %._crit_edge.i ]
  %.025.i = phi i32 [ 0, %.lr.ph27.i ], [ %.1.lcssa.i, %._crit_edge.i ]
  %8 = getelementptr inbounds nuw ptr, ptr %.val18.i, i64 %indvars.iv.i
  %9 = load ptr, ptr %8, align 8
  store ptr %9, ptr %6, align 8
  %.not.i = icmp eq ptr %9, null
  br i1 %.not.i, label %Mig_ManTypeNum.exit, label %.preheader.i

.preheader.i:                                     ; preds = %7
  %10 = getelementptr i8, ptr %9, i64 12
  %.014.val20.i = load i32, ptr %10, align 4
  %11 = icmp ult i32 %.014.val20.i, -2
  br i1 %11, label %.lr.ph.i, label %._crit_edge.i

.lr.ph.i:                                         ; preds = %.preheader.i, %23
  %.123.i = phi i32 [ %.2.i, %23 ], [ %.025.i, %.preheader.i ]
  %.01421.i = phi ptr [ %24, %23 ], [ %9, %.preheader.i ]
  %12 = getelementptr i8, ptr %.01421.i, i64 4
  %.014.val19.i = load i32, ptr %12, align 4
  %13 = icmp ugt i32 %.014.val19.i, -3
  br i1 %13, label %23, label %Mig_ObjIsNode2.exit.i.i.i

Mig_ObjIsNode2.exit.i.i.i:                        ; preds = %.lr.ph.i
  %14 = getelementptr inbounds nuw i8, ptr %.01421.i, i64 8
  %15 = load i32, ptr %14, align 4
  %16 = icmp ult i32 %15, -2
  br i1 %16, label %Mig_ObjIsXor.exit.thread.i.i, label %Mig_ObjIsAnd.exit.i.i

Mig_ObjIsAnd.exit.i.i:                            ; preds = %Mig_ObjIsNode2.exit.i.i.i
  %17 = load i32, ptr %.01421.i, align 4
  %18 = lshr i32 %17, 1
  %19 = lshr i32 %.014.val19.i, 1
  %.not.i.i = icmp samesign ult i32 %18, %19
  br i1 %.not.i.i, label %Mig_ObjNodeType.exit.i, label %Mig_ObjIsXor.exit.i.i

Mig_ObjIsXor.exit.i.i:                            ; preds = %Mig_ObjIsAnd.exit.i.i
  %20 = icmp samesign ule i32 %18, %19
  %cond.fr.i.i = freeze i1 %20
  br i1 %cond.fr.i.i, label %Mig_ObjIsXor.exit.thread.i.i, label %Mig_ObjNodeType.exit.i

Mig_ObjIsXor.exit.thread.i.i:                     ; preds = %Mig_ObjIsXor.exit.i.i, %Mig_ObjIsNode2.exit.i.i.i
  br label %Mig_ObjNodeType.exit.i

Mig_ObjNodeType.exit.i:                           ; preds = %Mig_ObjIsXor.exit.thread.i.i, %Mig_ObjIsXor.exit.i.i, %Mig_ObjIsAnd.exit.i.i
  %21 = phi i32 [ 0, %Mig_ObjIsAnd.exit.i.i ], [ 0, %Mig_ObjIsXor.exit.thread.i.i ], [ 1, %Mig_ObjIsXor.exit.i.i ]
  %22 = add nsw i32 %21, %.123.i
  br label %23

23:                                               ; preds = %Mig_ObjNodeType.exit.i, %.lr.ph.i
  %.2.i = phi i32 [ %22, %Mig_ObjNodeType.exit.i ], [ %.123.i, %.lr.ph.i ]
  %24 = getelementptr inbounds nuw i8, ptr %.01421.i, i64 16
  %25 = getelementptr i8, ptr %.01421.i, i64 28
  %.014.val.i = load i32, ptr %25, align 4
  %26 = icmp ult i32 %.014.val.i, -2
  br i1 %26, label %.lr.ph.i, label %._crit_edge.i, !llvm.loop !6

._crit_edge.i:                                    ; preds = %23, %.preheader.i
  %.1.lcssa.i = phi i32 [ %.025.i, %.preheader.i ], [ %.2.i, %23 ]
  %indvars.iv.next.i = add nuw nsw i64 %indvars.iv.i, 1
  %27 = trunc nuw nsw i64 %indvars.iv.next.i to i32
  store i32 %27, ptr %2, align 8
  %exitcond.not.i = icmp eq i64 %indvars.iv.next.i, %wide.trip.count.i
  br i1 %exitcond.not.i, label %Mig_ManTypeNum.exit, label %7, !llvm.loop !7

Mig_ManTypeNum.exit:                              ; preds = %7, %._crit_edge.i, %1
  %.0.lcssa.i = phi i32 [ 0, %1 ], [ %.025.i, %7 ], [ %.1.lcssa.i, %._crit_edge.i ]
  ret i32 %.0.lcssa.i
}